; Function Attrs: nounwind uwtable
define void @dtgtk_gradient_slider_multivalue_set_increment(ptr noundef writeonly %0, double noundef %1) local_unnamed_addr #0 {
  %.not = icmp eq ptr %0, null
  br i1 %.not, label %3, label %4, !prof !45

3:                                                ; preds = %2
  tail call void @g_return_if_fail_warning(ptr noundef null, ptr noundef nonnull @__func__.dtgtk_gradient_slider_multivalue_set_increment, ptr noundef nonnull @.str.1) #14
  br label %6

4:                                                ; preds = %2
  %5 = getelementptr inbounds nuw i8, ptr %0, i64 264
  store double %1, ptr %5, align 8, !tbaa !38
  br label %6

6:                                                ; preds = %4, %3
  ret void
}